; ModuleID = '43/944.c'
source_filename = "43/944.c"
target datalayout = "e-m:e-p270:32:32-p271:32:32-p272:64:64-i64:64-f80:128-n8:16:32:64-S128"
target triple = "x86_64-pc-linux-gnu"

@.str = private unnamed_addr constant [3 x i8] c"%d\00", align 1
@.str.1 = private unnamed_addr constant [7 x i8] c"%d %d\0A\00", align 1

; Function Attrs: noinline nounwind uwtable
define dso_local i32 @main() #0 {
  %1 = alloca i32, align 4
  %2 = alloca i32, align 4
  %3 = alloca i32, align 4
  %4 = alloca i32, align 4
  %5 = alloca i32, align 4
  %6 = alloca i32, align 4
  %7 = alloca i32, align 4
  %8 = alloca double, align 8
  %9 = alloca double, align 8
  store i32 0, i32* %1, align 4
  store i32 3, i32* %3, align 4
  store i32 2, i32* %4, align 4
  store i32 2, i32* %5, align 4
  %10 = call i32 (i8*, ...) @__isoc99_scanf(i8* getelementptr inbounds ([3 x i8], [3 x i8]* @.str, i64 0, i64 0), i32* %2)
  br label %11

11:                                               ; preds = %82, %0
  %12 = load i32, i32* %3, align 4
  %13 = load i32, i32* %2, align 4
  %14 = sdiv i32 %13, 2
  %15 = icmp sle i32 %12, %14
  br i1 %15, label %16, label %85

16:                                               ; preds = %11
  %17 = load i32, i32* %3, align 4
  %18 = sitofp i32 %17 to float
  %19 = call float @sqrtf(float %18) #3
  %20 = fpext float %19 to double
  store double %20, double* %8, align 8
  store i32 2, i32* %4, align 4
  br label %21

21:                                               ; preds = %34, %16
  %22 = load i32, i32* %4, align 4
  %23 = sitofp i32 %22 to double
  %24 = load double, double* %8, align 8
  %25 = fcmp ole double %23, %24
  br i1 %25, label %26, label %37

26:                                               ; preds = %21
  %27 = load i32, i32* %3, align 4
  %28 = load i32, i32* %4, align 4
  %29 = srem i32 %27, %28
  %30 = icmp eq i32 %29, 0
  br i1 %30, label %31, label %33

31:                                               ; preds = %26
  %32 = load i32, i32* %4, align 4
  store i32 %32, i32* %6, align 4
  br label %37

33:                                               ; preds = %26
  br label %34

34:                                               ; preds = %33
  %35 = load i32, i32* %4, align 4
  %36 = add nsw i32 %35, 1
  store i32 %36, i32* %4, align 4
  br label %21

37:                                               ; preds = %31, %21
  %38 = load i32, i32* %3, align 4
  %39 = load i32, i32* %6, align 4
  %40 = srem i32 %38, %39
  %41 = icmp eq i32 %40, 0
  br i1 %41, label %42, label %43

42:                                               ; preds = %37
  br label %82

43:                                               ; preds = %37
  %44 = load i32, i32* %2, align 4
  %45 = load i32, i32* %3, align 4
  %46 = sub nsw i32 %44, %45
  %47 = sitofp i32 %46 to float
  %48 = call float @sqrtf(float %47) #3
  %49 = fpext float %48 to double
  store double %49, double* %9, align 8
  store i32 2, i32* %5, align 4
  br label %50

50:                                               ; preds = %65, %43
  %51 = load i32, i32* %5, align 4
  %52 = sitofp i32 %51 to double
  %53 = load double, double* %9, align 8
  %54 = fcmp ole double %52, %53
  br i1 %54, label %55, label %68

55:                                               ; preds = %50
  %56 = load i32, i32* %2, align 4
  %57 = load i32, i32* %3, align 4
  %58 = sub nsw i32 %56, %57
  %59 = load i32, i32* %5, align 4
  %60 = srem i32 %58, %59
  %61 = icmp eq i32 %60, 0
  br i1 %61, label %62, label %64

62:                                               ; preds = %55
  %63 = load i32, i32* %5, align 4
  store i32 %63, i32* %7, align 4
  br label %68

64:                                               ; preds = %55
  br label %65

65:                                               ; preds = %64
  %66 = load i32, i32* %5, align 4
  %67 = add nsw i32 %66, 1
  store i32 %67, i32* %5, align 4
  br label %50

68:                                               ; preds = %62, %50
  %69 = load i32, i32* %2, align 4
  %70 = load i32, i32* %3, align 4
  %71 = sub nsw i32 %69, %70
  %72 = load i32, i32* %7, align 4
  %73 = srem i32 %71, %72
  %74 = icmp eq i32 %73, 0
  br i1 %74, label %75, label %76

75:                                               ; preds = %68
  br label %82

76:                                               ; preds = %68
  %77 = load i32, i32* %3, align 4
  %78 = load i32, i32* %2, align 4
  %79 = load i32, i32* %3, align 4
  %80 = sub nsw i32 %78, %79
  %81 = call i32 (i8*, ...) @printf(i8* getelementptr inbounds ([7 x i8], [7 x i8]* @.str.1, i64 0, i64 0), i32 %77, i32 %80)
  br label %82

82:                                               ; preds = %76, %75, %42
  %83 = load i32, i32* %3, align 4
  %84 = add nsw i32 %83, 2
  store i32 %84, i32* %3, align 4
  br label %11

85:                                               ; preds = %11
  %86 = load i32, i32* %1, align 4
  ret i32 %86
}

declare dso_local i32 @__isoc99_scanf(i8*, ...) #1

; Function Attrs: nounwind
declare dso_local float @sqrtf(float) #2

declare dso_local i32 @printf(i8*, ...) #1


!llvm.module.flags = !{!0}
!llvm.ident = !{!1}

!0 = !{i32 1, !"wchar_size", i32 4}
!1 = !{!"clang version 10.0.0-4ubuntu1 "}
